target datalayout = "e-m:e-p270:32:32-p271:32:32-p272:64:64-i64:64-i128:128-f80:128-n8:16:32:64-S128"
target triple = "x86_64-pc-linux-gnu"

%struct.DdManager = type { %struct.DdNode, ptr, ptr, ptr, ptr, ptr, ptr, ptr, i32, i32, double, double, double, i32, i32, i32, i32, i32, i32, ptr, ptr, %struct.DdSubtable, i32, i32, i32, i32, i32, i32, i32, double, i32, i32, i32, ptr, i64, double, i32, ptr, ptr, ptr, ptr, ptr, ptr, ptr, i32, ptr, ptr, ptr, ptr, ptr, ptr, i32, i32, i32, double, i32, i32, i32, i32, double, double, i32, i32, i32, i32, i32, i32, i32, i32, i32, ptr, ptr, i32, i32, i32, i32, i32, i32, ptr, ptr, ptr, ptr, ptr, ptr, ptr, ptr, i32, i64, i64, i64, i32, i64, i64, double, double, double, double, double, double, i32, ptr, ptr, i64 }
%struct.DdNode = type { i32, i32, ptr, %union.anon, i64 }
%union.anon = type { %struct.DdChildren }
%struct.DdChildren = type { ptr, ptr }
%struct.DdSubtable = type { ptr, i32, i32, i32, i32, i32, i32, i32, i32, i32, i32, i32 }

; Function Attrs: nounwind uwtable
define i32 @Cudd_VectorSupportSize(ptr noundef %0, ptr noundef %1, i32 noundef %2) #0 {
  %4 = alloca i32, align 4
  %5 = alloca ptr, align 8
  %6 = alloca ptr, align 8
  %7 = alloca i32, align 4
  %8 = alloca ptr, align 8
  %9 = alloca i32, align 4
  %10 = alloca i32, align 4
  %11 = alloca i32, align 4
  store ptr %0, ptr %5, align 8
  store ptr %1, ptr %6, align 8
  store i32 %2, ptr %7, align 4
  %12 = load ptr, ptr %5, align 8
  %13 = getelementptr inbounds %struct.DdManager, ptr %12, i32 0, i32 16
  %14 = load i32, ptr %13, align 4
  %15 = load ptr, ptr %5, align 8
  %16 = getelementptr inbounds %struct.DdManager, ptr %15, i32 0, i32 15
  %17 = load i32, ptr %16, align 8
  %18 = icmp sgt i32 %14, %17
  br i1 %18, label %19, label %23

19:                                               ; preds = %3
  %20 = load ptr, ptr %5, align 8
  %21 = getelementptr inbounds %struct.DdManager, ptr %20, i32 0, i32 16
  %22 = load i32, ptr %21, align 4
  br label %27

23:                                               ; preds = %3
  %24 = load ptr, ptr %5, align 8
  %25 = getelementptr inbounds %struct.DdManager, ptr %24, i32 0, i32 15
  %26 = load i32, ptr %25, align 8
  br label %27

27:                                               ; preds = %23, %19
  %28 = phi i32 [ %22, %19 ], [ %26, %23 ]
  store i32 %28, ptr %10, align 4
  %29 = load i32, ptr %10, align 4
  %30 = sext i32 %29 to i64
  %31 = mul i64 4, %30
  %32 = call noalias ptr @malloc(i64 noundef %31) #5
  store ptr %32, ptr %8, align 8
  %33 = load ptr, ptr %8, align 8
  %34 = icmp eq ptr %33, null
  br i1 %34, label %35, label %38

35:                                               ; preds = %27
  %36 = load ptr, ptr %5, align 8
  %37 = getelementptr inbounds %struct.DdManager, ptr %36, i32 0, i32 86
  store i32 1, ptr %37, align 8
  store i32 -1, ptr %4, align 4
  br label %113

38:                                               ; preds = %27
  store i32 0, ptr %9, align 4
  br label %39

39:                                               ; preds = %48, %38
  %40 = load i32, ptr %9, align 4
  %41 = load i32, ptr %10, align 4
  %42 = icmp slt i32 %40, %41
  br i1 %42, label %43, label %51

43:                                               ; preds = %39
  %44 = load ptr, ptr %8, align 8
  %45 = load i32, ptr %9, align 4
  %46 = sext i32 %45 to i64
  %47 = getelementptr inbounds i32, ptr %44, i64 %46
  store i32 0, ptr %47, align 4
  br label %48

48:                                               ; preds = %43
  %49 = load i32, ptr %9, align 4
  %50 = add nsw i32 %49, 1
  store i32 %50, ptr %9, align 4
  br label %39, !llvm.loop !26

51:                                               ; preds = %39
  store i32 0, ptr %9, align 4
  br label %52

52:                                               ; preds = %66, %51
  %53 = load i32, ptr %9, align 4
  %54 = load i32, ptr %7, align 4
  %55 = icmp slt i32 %53, %54
  br i1 %55, label %56, label %69

56:                                               ; preds = %52
  %57 = load ptr, ptr %6, align 8
  %58 = load i32, ptr %9, align 4
  %59 = sext i32 %58 to i64
  %60 = getelementptr inbounds ptr, ptr %57, i64 %59
  %61 = load ptr, ptr %60, align 8
  %62 = ptrtoint ptr %61 to i64
  %63 = and i64 %62, -2
  %64 = inttoptr i64 %63 to ptr
  %65 = load ptr, ptr %8, align 8
  call void @ddSupportStep(ptr noundef %64, ptr noundef %65)
  br label %66

66:                                               ; preds = %56
  %67 = load i32, ptr %9, align 4
  %68 = add nsw i32 %67, 1
  store i32 %68, ptr %9, align 4
  br label %52, !llvm.loop !27

69:                                               ; preds = %52
  store i32 0, ptr %9, align 4
  br label %70

70:                                               ; preds = %83, %69
  %71 = load i32, ptr %9, align 4
  %72 = load i32, ptr %7, align 4
  %73 = icmp slt i32 %71, %72
  br i1 %73, label %74, label %86

74:                                               ; preds = %70
  %75 = load ptr, ptr %6, align 8
  %76 = load i32, ptr %9, align 4
  %77 = sext i32 %76 to i64
  %78 = getelementptr inbounds ptr, ptr %75, i64 %77
  %79 = load ptr, ptr %78, align 8
  %80 = ptrtoint ptr %79 to i64
  %81 = and i64 %80, -2
  %82 = inttoptr i64 %81 to ptr
  call void @ddClearFlag(ptr noundef %82)
  br label %83

83:                                               ; preds = %74
  %84 = load i32, ptr %9, align 4
  %85 = add nsw i32 %84, 1
  store i32 %85, ptr %9, align 4
  br label %70, !llvm.loop !28

86:                                               ; preds = %70
  store i32 0, ptr %11, align 4
  store i32 0, ptr %9, align 4
  br label %87

87:                                               ; preds = %102, %86
  %88 = load i32, ptr %9, align 4
  %89 = load i32, ptr %10, align 4
  %90 = icmp slt i32 %88, %89
  br i1 %90, label %91, label %105

91:                                               ; preds = %87
  %92 = load ptr, ptr %8, align 8
  %93 = load i32, ptr %9, align 4
  %94 = sext i32 %93 to i64
  %95 = getelementptr inbounds i32, ptr %92, i64 %94
  %96 = load i32, ptr %95, align 4
  %97 = icmp eq i32 %96, 1
  br i1 %97, label %98, label %101

98:                                               ; preds = %91
  %99 = load i32, ptr %11, align 4
  %100 = add nsw i32 %99, 1
  store i32 %100, ptr %11, align 4
  br label %101

101:                                              ; preds = %98, %91
  br label %102

102:                                              ; preds = %101
  %103 = load i32, ptr %9, align 4
  %104 = add nsw i32 %103, 1
  store i32 %104, ptr %9, align 4
  br label %87, !llvm.loop !29

105:                                              ; preds = %87
  %106 = load ptr, ptr %8, align 8
  %107 = icmp ne ptr %106, null
  br i1 %107, label %108, label %110

108:                                              ; preds = %105
  %109 = load ptr, ptr %8, align 8
  call void @free(ptr noundef %109) #6
  store ptr null, ptr %8, align 8
  br label %111

110:                                              ; preds = %105
  br label %111

111:                                              ; preds = %110, %108
  %112 = load i32, ptr %11, align 4
  store i32 %112, ptr %4, align 4
  br label %113

113:                                              ; preds = %111, %35
  %114 = load i32, ptr %4, align 4
  ret i32 %114
}