; Function Attrs: nounwind uwtable
define i32 @Cudd_VectorSupportSize(ptr noundef captures(none) %0, ptr noundef readonly captures(none) %1, i32 noundef %2) local_unnamed_addr #0 {
  %4 = getelementptr inbounds nuw i8, ptr %0, i64 140
  %5 = load i32, ptr %4, align 4
  %6 = getelementptr inbounds nuw i8, ptr %0, i64 136
  %7 = load i32, ptr %6, align 8
  %. = tail call i32 @llvm.smax.i32(i32 %5, i32 %7)
  %8 = sext i32 %. to i64
  %9 = shl nsw i64 %8, 2
  %10 = tail call noalias ptr @malloc(i64 noundef %9) #22
  %11 = icmp eq ptr %10, null
  br i1 %11, label %15, label %.preheader42

.preheader42:                                     ; preds = %3
  %12 = icmp sgt i32 %., 0
  br i1 %12, label %.lr.ph.preheader, label %.preheader41

.lr.ph.preheader:                                 ; preds = %.preheader42
  %13 = zext nneg i32 %. to i64
  %14 = shl nuw nsw i64 %13, 2
  tail call void @llvm.memset.p0.i64(ptr nonnull align 4 %10, i8 0, i64 %14, i1 false)
  br label %.preheader41

15:                                               ; preds = %3
  %16 = getelementptr inbounds nuw i8, ptr %0, i64 624
  store i32 1, ptr %16, align 8
  br label %32

.preheader41:                                     ; preds = %.lr.ph.preheader, %.preheader42
  %17 = icmp sgt i32 %2, 0
  br i1 %17, label %.lr.ph45.preheader, label %.preheader

.lr.ph45.preheader:                               ; preds = %.preheader41
  %wide.trip.count = zext nneg i32 %2 to i64
  br label %.lr.ph45

.lr.ph47.preheader:                               ; preds = %.lr.ph45
  %wide.trip.count56 = zext nneg i32 %2 to i64
  br label %.lr.ph47

.lr.ph45:                                         ; preds = %.lr.ph45.preheader, %.lr.ph45
  %indvars.iv = phi i64 [ 0, %.lr.ph45.preheader ], [ %indvars.iv.next, %.lr.ph45 ]
  %18 = getelementptr inbounds nuw ptr, ptr %1, i64 %indvars.iv
  %19 = load ptr, ptr %18, align 8
  %20 = ptrtoint ptr %19 to i64
  %21 = and i64 %20, -2
  %22 = inttoptr i64 %21 to ptr
  tail call fastcc void @ddSupportStep(ptr noundef %22, ptr noundef %10)
  %indvars.iv.next = add nuw nsw i64 %indvars.iv, 1
  %exitcond.not = icmp eq i64 %indvars.iv.next, %wide.trip.count
  br i1 %exitcond.not, label %.lr.ph47.preheader, label %.lr.ph45, !llvm.loop !23

.preheader:                                       ; preds = %.lr.ph47, %.preheader41
  br i1 %12, label %.lr.ph50.preheader, label %._crit_edge

.lr.ph50.preheader:                               ; preds = %.preheader
  %wide.trip.count61 = zext nneg i32 %. to i64
  br label %.lr.ph50

.lr.ph47:                                         ; preds = %.lr.ph47.preheader, %.lr.ph47
  %indvars.iv53 = phi i64 [ 0, %.lr.ph47.preheader ], [ %indvars.iv.next54, %.lr.ph47 ]
  %23 = getelementptr inbounds nuw ptr, ptr %1, i64 %indvars.iv53
  %24 = load ptr, ptr %23, align 8
  %25 = ptrtoint ptr %24 to i64
  %26 = and i64 %25, -2
  %27 = inttoptr i64 %26 to ptr
  tail call fastcc void @ddClearFlag(ptr noundef %27)
  %indvars.iv.next54 = add nuw nsw i64 %indvars.iv53, 1
  %exitcond57.not = icmp eq i64 %indvars.iv.next54, %wide.trip.count56
  br i1 %exitcond57.not, label %.preheader, label %.lr.ph47, !llvm.loop !24

.lr.ph50:                                         ; preds = %.lr.ph50.preheader, %.lr.ph50
  %indvars.iv58 = phi i64 [ 0, %.lr.ph50.preheader ], [ %indvars.iv.next59, %.lr.ph50 ]
  %.049 = phi i32 [ 0, %.lr.ph50.preheader ], [ %spec.select, %.lr.ph50 ]
  %28 = getelementptr inbounds nuw i32, ptr %10, i64 %indvars.iv58
  %29 = load i32, ptr %28, align 4
  %30 = icmp eq i32 %29, 1
  %31 = zext i1 %30 to i32
  %spec.select = add nuw nsw i32 %.049, %31
  %indvars.iv.next59 = add nuw nsw i64 %indvars.iv58, 1
  %exitcond62.not = icmp eq i64 %indvars.iv.next59, %wide.trip.count61
  br i1 %exitcond62.not, label %._crit_edge, label %.lr.ph50, !llvm.loop !25

._crit_edge:                                      ; preds = %.lr.ph50, %.preheader
  %.0.lcssa = phi i32 [ 0, %.preheader ], [ %spec.select, %.lr.ph50 ]
  tail call void @free(ptr noundef %10) #23
  br label %32

32:                                               ; preds = %._crit_edge, %15
  %.032 = phi i32 [ -1, %15 ], [ %.0.lcssa, %._crit_edge ]
  ret i32 %.032
}